; Function Attrs: mustprogress nounwind uwtable
define internal fastcc void @_ZZNK4llvm20GIMatchTableExecutor17executeMatchTableIKN12_GLOBAL__N_132AArch64PostLegalizerLoweringImplENS_6BitsetILj0EEEMS3_KFSt8optionalINS_11SmallVectorISt8functionIFvRNS_19MachineInstrBuilderEEELj4EEEERNS_14MachineOperandEEMS3_KFvSB_RKNS_12MachineInstrEiEEEbRT_RNS0_12MatcherStateERKNS0_10ExecInfoTyIT0_T1_T2_EERNS_16MachineIRBuilderEPKhRKNS_15TargetInstrInfoERNS_19MachineRegisterInfoERKNS_18TargetRegisterInfoERKNS_16RegisterBankInfoERKSU_PNS_15CodeGenCoverageEENKUlvE0_clEv(ptr nocapture noundef nonnull readonly align 8 dereferenceable(32) %0) unnamed_addr #0 align 2 {
  %2 = load ptr, ptr %0, align 8
  %3 = load ptr, ptr %2, align 8
  %4 = tail call noundef i64 @_ZNK4llvm15SmallVectorBaseIjE4sizeEv(ptr noundef nonnull align 8 dereferenceable(16) %2) #22
  %5 = getelementptr inbounds %"class.llvm::MachineInstrBuilder", ptr %3, i64 %4
  %.not18 = icmp eq i64 %4, 0
  br i1 %.not18, label %._crit_edge, label %.lr.ph

.lr.ph:                                           ; preds = %1
  %6 = getelementptr inbounds nuw i8, ptr %0, i64 8
  %7 = getelementptr inbounds nuw i8, ptr %0, i64 16
  %8 = getelementptr inbounds nuw i8, ptr %0, i64 24
  br label %9

9:                                                ; preds = %.lr.ph, %52
  %.0819 = phi ptr [ %3, %.lr.ph ], [ %53, %52 ]
  %.sroa.1.0..08.sroa_idx = getelementptr inbounds i8, ptr %.0819, i64 8
  %.sroa.1.0.copyload = load ptr, ptr %.sroa.1.0..08.sroa_idx, align 8
  %10 = load ptr, ptr %6, align 8
  %11 = load i16, ptr %10, align 2
  %12 = load ptr, ptr %7, align 8
  %13 = load i8, ptr %12, align 1
  %14 = trunc i8 %13 to i1
  br i1 %14, label %15, label %_ZNK4llvm12MachineInstr19mayRaiseFPExceptionEv.exit.thread

15:                                               ; preds = %9
  %16 = getelementptr inbounds nuw i8, ptr %.sroa.1.0.copyload, i64 44
  %17 = load i32, ptr %16, align 4
  %18 = and i32 %17, 12
  %19 = icmp eq i32 %18, 0
  %20 = and i32 %17, 4
  %21 = icmp ne i32 %20, 0
  %or.cond.i.i = or i1 %19, %21
  br i1 %or.cond.i.i, label %22, label %_ZNK4llvm12MachineInstr11hasPropertyEjNS0_9QueryTypeE.exit.i

22:                                               ; preds = %15
  %23 = getelementptr inbounds nuw i8, ptr %.sroa.1.0.copyload, i64 16
  %24 = load ptr, ptr %23, align 8
  %25 = getelementptr inbounds nuw i8, ptr %24, i64 16
  %26 = load i64, ptr %25, align 8
  %27 = and i64 %26, 2097152
  %.not.i = icmp eq i64 %27, 0
  br i1 %.not.i, label %_ZNK4llvm12MachineInstr19mayRaiseFPExceptionEv.exit.thread, label %_ZNK4llvm12MachineInstr19mayRaiseFPExceptionEv.exit

_ZNK4llvm12MachineInstr11hasPropertyEjNS0_9QueryTypeE.exit.i: ; preds = %15
  %28 = tail call noundef zeroext i1 @_ZNK4llvm12MachineInstr19hasPropertyInBundleEmNS0_9QueryTypeE(ptr noundef nonnull align 8 dereferenceable(70) %.sroa.1.0.copyload, i64 noundef 2097152, i32 noundef 1) #22
  br i1 %28, label %_ZNK4llvm12MachineInstr11hasPropertyEjNS0_9QueryTypeE.exit._crit_edge.i, label %_ZNK4llvm12MachineInstr19mayRaiseFPExceptionEv.exit.thread

_ZNK4llvm12MachineInstr11hasPropertyEjNS0_9QueryTypeE.exit._crit_edge.i: ; preds = %_ZNK4llvm12MachineInstr11hasPropertyEjNS0_9QueryTypeE.exit.i
  %.pre.i = load i32, ptr %16, align 4
  br label %_ZNK4llvm12MachineInstr19mayRaiseFPExceptionEv.exit

_ZNK4llvm12MachineInstr19mayRaiseFPExceptionEv.exit: ; preds = %22, %_ZNK4llvm12MachineInstr11hasPropertyEjNS0_9QueryTypeE.exit._crit_edge.i
  %29 = phi i32 [ %.pre.i, %_ZNK4llvm12MachineInstr11hasPropertyEjNS0_9QueryTypeE.exit._crit_edge.i ], [ %17, %22 ]
  %.fr17 = freeze i32 %29
  %30 = trunc i32 %.fr17 to i16
  %31 = and i16 %30, 16384
  %32 = xor i16 %31, 16384
  %spec.select = or i16 %32, %11
  br label %_ZNK4llvm12MachineInstr19mayRaiseFPExceptionEv.exit.thread

_ZNK4llvm12MachineInstr19mayRaiseFPExceptionEv.exit.thread: ; preds = %_ZNK4llvm12MachineInstr19mayRaiseFPExceptionEv.exit, %22, %_ZNK4llvm12MachineInstr11hasPropertyEjNS0_9QueryTypeE.exit.i, %9
  %.0 = phi i16 [ %11, %9 ], [ %11, %_ZNK4llvm12MachineInstr11hasPropertyEjNS0_9QueryTypeE.exit.i ], [ %11, %22 ], [ %spec.select, %_ZNK4llvm12MachineInstr19mayRaiseFPExceptionEv.exit ]
  %33 = load ptr, ptr %8, align 8
  %34 = load ptr, ptr %33, align 8
  %.not11 = icmp eq ptr %34, null
  br i1 %.not11, label %39, label %35

35:                                               ; preds = %_ZNK4llvm12MachineInstr19mayRaiseFPExceptionEv.exit.thread
  %36 = load ptr, ptr %34, align 8
  %37 = getelementptr inbounds i8, ptr %36, i64 32
  %38 = load ptr, ptr %37, align 8
  tail call void %38(ptr noundef nonnull align 8 dereferenceable(72) %34, ptr noundef nonnull align 8 dereferenceable(70) %.sroa.1.0.copyload) #22
  br label %39

39:                                               ; preds = %35, %_ZNK4llvm12MachineInstr19mayRaiseFPExceptionEv.exit.thread
  %40 = getelementptr inbounds nuw i8, ptr %.sroa.1.0.copyload, i64 44
  %41 = load i32, ptr %40, align 4
  %42 = and i16 %.0, -13
  %43 = zext i16 %42 to i32
  %44 = and i32 %41, -16777204
  %45 = or disjoint i32 %44, %43
  store i32 %45, ptr %40, align 4
  %46 = load ptr, ptr %8, align 8
  %47 = load ptr, ptr %46, align 8
  %.not12 = icmp eq ptr %47, null
  br i1 %.not12, label %52, label %48

48:                                               ; preds = %39
  %49 = load ptr, ptr %47, align 8
  %50 = getelementptr inbounds i8, ptr %49, i64 40
  %51 = load ptr, ptr %50, align 8
  tail call void %51(ptr noundef nonnull align 8 dereferenceable(72) %47, ptr noundef nonnull align 8 dereferenceable(70) %.sroa.1.0.copyload) #22
  br label %52

52:                                               ; preds = %39, %48
  %53 = getelementptr inbounds i8, ptr %.0819, i64 16
  %.not = icmp eq ptr %53, %5
  br i1 %.not, label %._crit_edge, label %9

._crit_edge:                                      ; preds = %52, %1
  ret void
}